; ModuleID = '53/530.c'
source_filename = "53/530.c"
target datalayout = "e-m:e-p270:32:32-p271:32:32-p272:64:64-i64:64-f80:128-n8:16:32:64-S128"
target triple = "x86_64-pc-linux-gnu"

@.str = private unnamed_addr constant [3 x i8] c"%d\00", align 1
@.str.1 = private unnamed_addr constant [4 x i8] c"%d,\00", align 1

; Function Attrs: noinline nounwind uwtable
define dso_local void @main() #0 {
  %1 = alloca i32, align 4
  %2 = alloca [300 x i32], align 16
  %3 = alloca i32, align 4
  %4 = alloca i32, align 4
  %5 = alloca i32, align 4
  %6 = alloca i32, align 4
  %7 = alloca i32, align 4
  store i32 1, i32* %6, align 4
  %8 = call i32 (i8*, ...) @__isoc99_scanf(i8* getelementptr inbounds ([3 x i8], [3 x i8]* @.str, i64 0, i64 0), i32* %1)
  %9 = getelementptr inbounds [300 x i32], [300 x i32]* %2, i64 0, i64 0
  %10 = call i32 (i8*, ...) @__isoc99_scanf(i8* getelementptr inbounds ([3 x i8], [3 x i8]* @.str, i64 0, i64 0), i32* %9)
  store i32 1, i32* %3, align 4
  store i32 0, i32* %7, align 4
  br label %11

11:                                               ; preds = %47, %0
  %12 = load i32, i32* %3, align 4
  %13 = load i32, i32* %1, align 4
  %14 = icmp slt i32 %12, %13
  br i1 %14, label %15, label %50

15:                                               ; preds = %11
  %16 = call i32 (i8*, ...) @__isoc99_scanf(i8* getelementptr inbounds ([3 x i8], [3 x i8]* @.str, i64 0, i64 0), i32* %5)
  store i32 0, i32* %4, align 4
  br label %17

17:                                               ; preds = %33, %15
  %18 = load i32, i32* %4, align 4
  %19 = load i32, i32* %7, align 4
  %20 = icmp sle i32 %18, %19
  br i1 %20, label %21, label %36

21:                                               ; preds = %17
  %22 = load i32, i32* %4, align 4
  %23 = sext i32 %22 to i64
  %24 = getelementptr inbounds [300 x i32], [300 x i32]* %2, i64 0, i64 %23
  %25 = load i32, i32* %24, align 4
  %26 = load i32, i32* %5, align 4
  %27 = icmp ne i32 %25, %26
  br i1 %27, label %28, label %31

28:                                               ; preds = %21
  %29 = load i32, i32* %6, align 4
  %30 = mul nsw i32 %29, 1
  store i32 %30, i32* %6, align 4
  br label %32

31:                                               ; preds = %21
  store i32 0, i32* %6, align 4
  br label %32

32:                                               ; preds = %31, %28
  br label %33

33:                                               ; preds = %32
  %34 = load i32, i32* %4, align 4
  %35 = add nsw i32 %34, 1
  store i32 %35, i32* %4, align 4
  br label %17

36:                                               ; preds = %17
  %37 = load i32, i32* %6, align 4
  %38 = icmp eq i32 %37, 1
  br i1 %38, label %39, label %46

39:                                               ; preds = %36
  %40 = load i32, i32* %7, align 4
  %41 = add nsw i32 %40, 1
  store i32 %41, i32* %7, align 4
  %42 = load i32, i32* %5, align 4
  %43 = load i32, i32* %7, align 4
  %44 = sext i32 %43 to i64
  %45 = getelementptr inbounds [300 x i32], [300 x i32]* %2, i64 0, i64 %44
  store i32 %42, i32* %45, align 4
  br label %46

46:                                               ; preds = %39, %36
  store i32 1, i32* %6, align 4
  br label %47

47:                                               ; preds = %46
  %48 = load i32, i32* %3, align 4
  %49 = add nsw i32 %48, 1
  store i32 %49, i32* %3, align 4
  br label %11

50:                                               ; preds = %11
  store i32 0, i32* %3, align 4
  br label %51

51:                                               ; preds = %62, %50
  %52 = load i32, i32* %3, align 4
  %53 = load i32, i32* %7, align 4
  %54 = sub nsw i32 %53, 1
  %55 = icmp sle i32 %52, %54
  br i1 %55, label %56, label %65

56:                                               ; preds = %51
  %57 = load i32, i32* %3, align 4
  %58 = sext i32 %57 to i64
  %59 = getelementptr inbounds [300 x i32], [300 x i32]* %2, i64 0, i64 %58
  %60 = load i32, i32* %59, align 4
  %61 = call i32 (i8*, ...) @printf(i8* getelementptr inbounds ([4 x i8], [4 x i8]* @.str.1, i64 0, i64 0), i32 %60)
  br label %62

62:                                               ; preds = %56
  %63 = load i32, i32* %3, align 4
  %64 = add nsw i32 %63, 1
  store i32 %64, i32* %3, align 4
  br label %51

65:                                               ; preds = %51
  %66 = load i32, i32* %7, align 4
  %67 = sext i32 %66 to i64
  %68 = getelementptr inbounds [300 x i32], [300 x i32]* %2, i64 0, i64 %67
  %69 = load i32, i32* %68, align 4
  %70 = call i32 (i8*, ...) @printf(i8* getelementptr inbounds ([3 x i8], [3 x i8]* @.str, i64 0, i64 0), i32 %69)
  ret void
}

declare dso_local i32 @__isoc99_scanf(i8*, ...) #1

declare dso_local i32 @printf(i8*, ...) #1


!llvm.module.flags = !{!0}
!llvm.ident = !{!1}

!0 = !{i32 1, !"wchar_size", i32 4}
!1 = !{!"clang version 10.0.0-4ubuntu1 "}
