; ModuleID = 'source-C-CXX/52/530.c'
source_filename = "source-C-CXX/52/530.c"
target datalayout = "e-m:e-p270:32:32-p271:32:32-p272:64:64-i64:64-f80:128-n8:16:32:64-S128"
target triple = "x86_64-pc-linux-gnu"

@.str = private unnamed_addr constant [3 x i8] c"%d\00", align 1
@.str.1 = private unnamed_addr constant [4 x i8] c"%d,\00", align 1

; Function Attrs: nofree nounwind sspstrong uwtable
define dso_local void @main() local_unnamed_addr #0 {
  %1 = alloca i32, align 4
  %2 = alloca [300 x i32], align 16
  %3 = alloca i32, align 4
  %4 = bitcast i32* %1 to i8*
  call void @llvm.lifetime.start.p0i8(i64 4, i8* nonnull %4) #3
  %5 = bitcast [300 x i32]* %2 to i8*
  call void @llvm.lifetime.start.p0i8(i64 1200, i8* nonnull %5) #3
  %6 = bitcast i32* %3 to i8*
  call void @llvm.lifetime.start.p0i8(i64 4, i8* nonnull %6) #3
  %7 = call i32 (i8*, ...) @__isoc99_scanf(i8* getelementptr inbounds ([3 x i8], [3 x i8]* @.str, i64 0, i64 0), i32* nonnull %1)
  %8 = getelementptr inbounds [300 x i32], [300 x i32]* %2, i64 0, i64 0
  %9 = call i32 (i8*, ...) @__isoc99_scanf(i8* getelementptr inbounds ([3 x i8], [3 x i8]* @.str, i64 0, i64 0), i32* nonnull %8)
  %10 = load i32, i32* %1, align 4, !tbaa !5
  %11 = icmp sgt i32 %10, 1
  br i1 %11, label %16, label %91

12:                                               ; preds = %79
  %13 = icmp sgt i32 %80, 0
  br i1 %13, label %14, label %91

14:                                               ; preds = %12
  %15 = zext i32 %80 to i64
  br label %84

16:                                               ; preds = %0, %79
  %17 = phi i32 [ %80, %79 ], [ 0, %0 ]
  %18 = phi i32 [ %81, %79 ], [ 1, %0 ]
  %19 = call i32 (i8*, ...) @__isoc99_scanf(i8* getelementptr inbounds ([3 x i8], [3 x i8]* @.str, i64 0, i64 0), i32* nonnull %3)
  %20 = load i32, i32* %3, align 4
  %21 = icmp slt i32 %17, 0
  br i1 %21, label %75, label %22

22:                                               ; preds = %16
  %23 = add nuw i32 %17, 1
  %24 = zext i32 %23 to i64
  %25 = add nsw i64 %24, -1
  %26 = and i64 %24, 3
  %27 = icmp ult i64 %25, 3
  br i1 %27, label %56, label %28

28:                                               ; preds = %22
  %29 = and i64 %24, 4294967292
  br label %30

30:                                               ; preds = %30, %28
  %31 = phi i64 [ 0, %28 ], [ %53, %30 ]
  %32 = phi i32 [ 1, %28 ], [ %52, %30 ]
  %33 = phi i64 [ %29, %28 ], [ %54, %30 ]
  %34 = getelementptr inbounds [300 x i32], [300 x i32]* %2, i64 0, i64 %31
  %35 = load i32, i32* %34, align 16, !tbaa !5
  %36 = icmp eq i32 %35, %20
  %37 = or i64 %31, 1
  %38 = getelementptr inbounds [300 x i32], [300 x i32]* %2, i64 0, i64 %37
  %39 = load i32, i32* %38, align 4, !tbaa !5
  %40 = icmp eq i32 %39, %20
  %41 = or i64 %31, 2
  %42 = getelementptr inbounds [300 x i32], [300 x i32]* %2, i64 0, i64 %41
  %43 = load i32, i32* %42, align 8, !tbaa !5
  %44 = icmp eq i32 %43, %20
  %45 = or i64 %31, 3
  %46 = getelementptr inbounds [300 x i32], [300 x i32]* %2, i64 0, i64 %45
  %47 = load i32, i32* %46, align 4, !tbaa !5
  %48 = icmp eq i32 %47, %20
  %49 = select i1 %48, i1 true, i1 %44
  %50 = select i1 %49, i1 true, i1 %40
  %51 = select i1 %50, i1 true, i1 %36
  %52 = select i1 %51, i32 0, i32 %32
  %53 = add nuw nsw i64 %31, 4
  %54 = add i64 %33, -4
  %55 = icmp eq i64 %54, 0
  br i1 %55, label %56, label %30, !llvm.loop !9

56:                                               ; preds = %30, %22
  %57 = phi i32 [ undef, %22 ], [ %52, %30 ]
  %58 = phi i64 [ 0, %22 ], [ %53, %30 ]
  %59 = phi i32 [ 1, %22 ], [ %52, %30 ]
  %60 = icmp eq i64 %26, 0
  br i1 %60, label %72, label %61

61:                                               ; preds = %56, %61
  %62 = phi i64 [ %69, %61 ], [ %58, %56 ]
  %63 = phi i32 [ %68, %61 ], [ %59, %56 ]
  %64 = phi i64 [ %70, %61 ], [ %26, %56 ]
  %65 = getelementptr inbounds [300 x i32], [300 x i32]* %2, i64 0, i64 %62
  %66 = load i32, i32* %65, align 4, !tbaa !5
  %67 = icmp eq i32 %66, %20
  %68 = select i1 %67, i32 0, i32 %63
  %69 = add nuw nsw i64 %62, 1
  %70 = add i64 %64, -1
  %71 = icmp eq i64 %70, 0
  br i1 %71, label %72, label %61, !llvm.loop !11

72:                                               ; preds = %61, %56
  %73 = phi i32 [ %57, %56 ], [ %68, %61 ]
  %74 = icmp eq i32 %73, 1
  br i1 %74, label %75, label %79

75:                                               ; preds = %16, %72
  %76 = add nsw i32 %17, 1
  %77 = sext i32 %76 to i64
  %78 = getelementptr inbounds [300 x i32], [300 x i32]* %2, i64 0, i64 %77
  store i32 %20, i32* %78, align 4, !tbaa !5
  br label %79

79:                                               ; preds = %75, %72
  %80 = phi i32 [ %76, %75 ], [ %17, %72 ]
  %81 = add nuw nsw i32 %18, 1
  %82 = load i32, i32* %1, align 4, !tbaa !5
  %83 = icmp slt i32 %81, %82
  br i1 %83, label %16, label %12, !llvm.loop !13

84:                                               ; preds = %14, %84
  %85 = phi i64 [ 0, %14 ], [ %89, %84 ]
  %86 = getelementptr inbounds [300 x i32], [300 x i32]* %2, i64 0, i64 %85
  %87 = load i32, i32* %86, align 4, !tbaa !5
  %88 = call i32 (i8*, ...) @printf(i8* nonnull dereferenceable(1) getelementptr inbounds ([4 x i8], [4 x i8]* @.str.1, i64 0, i64 0), i32 %87)
  %89 = add nuw nsw i64 %85, 1
  %90 = icmp eq i64 %89, %15
  br i1 %90, label %91, label %84, !llvm.loop !14

91:                                               ; preds = %84, %0, %12
  %92 = phi i32 [ %80, %12 ], [ 0, %0 ], [ %80, %84 ]
  %93 = sext i32 %92 to i64
  %94 = getelementptr inbounds [300 x i32], [300 x i32]* %2, i64 0, i64 %93
  %95 = load i32, i32* %94, align 4, !tbaa !5
  %96 = call i32 (i8*, ...) @printf(i8* nonnull dereferenceable(1) getelementptr inbounds ([3 x i8], [3 x i8]* @.str, i64 0, i64 0), i32 %95)
  call void @llvm.lifetime.end.p0i8(i64 4, i8* nonnull %6) #3
  call void @llvm.lifetime.end.p0i8(i64 1200, i8* nonnull %5) #3
  call void @llvm.lifetime.end.p0i8(i64 4, i8* nonnull %4) #3
  ret void
}

; Function Attrs: argmemonly mustprogress nofree nosync nounwind willreturn
declare void @llvm.lifetime.start.p0i8(i64 immarg, i8* nocapture) #1

; Function Attrs: nofree nounwind
declare noundef i32 @__isoc99_scanf(i8* nocapture noundef readonly, ...) local_unnamed_addr #2

; Function Attrs: nofree nounwind
declare noundef i32 @printf(i8* nocapture noundef readonly, ...) local_unnamed_addr #2

; Function Attrs: argmemonly mustprogress nofree nosync nounwind willreturn
declare void @llvm.lifetime.end.p0i8(i64 immarg, i8* nocapture) #1


!llvm.module.flags = !{!0, !1, !2, !3}
!llvm.ident = !{!4}

!0 = !{i32 1, !"wchar_size", i32 4}
!1 = !{i32 7, !"PIC Level", i32 2}
!2 = !{i32 7, !"PIE Level", i32 2}
!3 = !{i32 7, !"uwtable", i32 1}
!4 = !{!"clang version 13.0.0"}
!5 = !{!6, !6, i64 0}
!6 = !{!"int", !7, i64 0}
!7 = !{!"omnipotent char", !8, i64 0}
!8 = !{!"Simple C/C++ TBAA"}
!9 = distinct !{!9, !10}
!10 = !{!"llvm.loop.mustprogress"}
!11 = distinct !{!11, !12}
!12 = !{!"llvm.loop.unroll.disable"}
!13 = distinct !{!13, !10}
!14 = distinct !{!14, !10}
